target datalayout = "e-m:e-p270:32:32-p271:32:32-p272:64:64-i64:64-i128:128-f80:128-n8:16:32:64-S128"
target triple = "x86_64-unknown-linux-gnu"

@.str.3 = private unnamed_addr constant [17 x i8] c"File write error\00", align 1

; Function Attrs: mustprogress uwtable
define internal void @_ZN7msdfgenL8pngWriteEP14png_struct_defPhm(ptr noundef %png, ptr noundef %data, i64 noundef %length) #0 {
entry:
  %png.addr = alloca ptr, align 8
  %data.addr = alloca ptr, align 8
  %length.addr = alloca i64, align 8
  store ptr %png, ptr %png.addr, align 8
  store ptr %data, ptr %data.addr, align 8
  store i64 %length, ptr %length.addr, align 8
  %0 = load ptr, ptr %data.addr, align 8
  %1 = load i64, ptr %length.addr, align 8
  %2 = load ptr, ptr %png.addr, align 8
  %call = call ptr @png_get_io_ptr(ptr noundef %2)
  %call1 = call i64 @fwrite(ptr noundef %0, i64 noundef 1, i64 noundef %1, ptr noundef %call)
  %3 = load i64, ptr %length.addr, align 8
  %cmp = icmp ne i64 %call1, %3
  br i1 %cmp, label %if.then, label %if.end

if.then:                                          ; preds = %entry
  %4 = load ptr, ptr %png.addr, align 8
  call void @png_error(ptr noundef %4, ptr noundef @.str.3) #12
  unreachable

if.end:                                           ; preds = %entry
  ret void
}