; Function Attrs: mustprogress uwtable
define internal void @_ZN7msdfgenL8pngWriteEP14png_struct_defPhm(ptr noundef %png, ptr noundef captures(none) %data, i64 noundef %length) #0 {
entry:
  %call = tail call ptr @png_get_io_ptr(ptr noundef %png)
  %call1 = tail call i64 @fwrite(ptr noundef %data, i64 noundef 1, i64 noundef %length, ptr noundef %call)
  %cmp.not = icmp eq i64 %call1, %length
  br i1 %cmp.not, label %if.end, label %if.then

if.then:                                          ; preds = %entry
  tail call void @png_error(ptr noundef %png, ptr noundef nonnull @.str.3) #13
  unreachable

if.end:                                           ; preds = %entry
  ret void
}